; Function Attrs: nounwind uwtable
define noalias noundef ptr @Abc_NtkDfsIterNodes(ptr noundef captures(none) %0, ptr noundef readonly captures(none) %1) local_unnamed_addr #0 {
  %3 = getelementptr inbounds nuw i8, ptr %0, i64 232
  %4 = load ptr, ptr %3, align 8, !tbaa !43
  %.not.i = icmp eq ptr %4, null
  br i1 %.not.i, label %5, label %Abc_NtkIncrementTravId.exit

5:                                                ; preds = %2
  %6 = getelementptr inbounds nuw i8, ptr %0, i64 224
  %7 = getelementptr i8, ptr %0, i64 32
  %.val.i = load ptr, ptr %7, align 8, !tbaa !35
  %8 = getelementptr i8, ptr %.val.i, i64 4
  %.val.val.i = load i32, ptr %8, align 4, !tbaa !41
  %9 = add nsw i32 %.val.val.i, 500
  %10 = load i32, ptr %6, align 8, !tbaa !29
  %.not.i.i.i = icmp slt i32 %10, %9
  br i1 %.not.i.i.i, label %11, label %Vec_IntGrow.exit.i.i

11:                                               ; preds = %5
  %12 = sext i32 %9 to i64
  %13 = shl nsw i64 %12, 2
  %14 = tail call noalias ptr @malloc(i64 noundef %13) #22
  store ptr %14, ptr %3, align 8, !tbaa !30
  store i32 %9, ptr %6, align 8, !tbaa !29
  br label %Vec_IntGrow.exit.i.i

Vec_IntGrow.exit.i.i:                             ; preds = %11, %5
  %15 = phi ptr [ %14, %11 ], [ null, %5 ]
  %16 = icmp sgt i32 %.val.val.i, -500
  br i1 %16, label %.lr.ph.i.i, label %Vec_IntFill.exit.i

.lr.ph.i.i:                                       ; preds = %Vec_IntGrow.exit.i.i
  %17 = zext nneg i32 %9 to i64
  %18 = shl nuw nsw i64 %17, 2
  tail call void @llvm.memset.p0.i64(ptr align 4 %15, i8 0, i64 %18, i1 false), !tbaa !31
  br label %Vec_IntFill.exit.i

Vec_IntFill.exit.i:                               ; preds = %.lr.ph.i.i, %Vec_IntGrow.exit.i.i
  %19 = getelementptr inbounds nuw i8, ptr %0, i64 228
  store i32 %9, ptr %19, align 4, !tbaa !28
  br label %Abc_NtkIncrementTravId.exit

Abc_NtkIncrementTravId.exit:                      ; preds = %2, %Vec_IntFill.exit.i
  %20 = getelementptr inbounds nuw i8, ptr %0, i64 216
  %21 = load i32, ptr %20, align 8, !tbaa !14
  %22 = add nsw i32 %21, 1
  store i32 %22, ptr %20, align 8, !tbaa !14
  %23 = tail call noalias dereferenceable_or_null(16) ptr @malloc(i64 noundef 16) #22
  %24 = getelementptr inbounds nuw i8, ptr %23, i64 4
  store i32 0, ptr %24, align 4, !tbaa !41
  store i32 1000, ptr %23, align 8, !tbaa !42
  %25 = tail call noalias dereferenceable_or_null(8000) ptr @malloc(i64 noundef 8000) #22
  %26 = getelementptr inbounds nuw i8, ptr %23, i64 8
  store ptr %25, ptr %26, align 8, !tbaa !36
  %27 = tail call noalias dereferenceable_or_null(16) ptr @malloc(i64 noundef 16) #22
  %28 = getelementptr inbounds nuw i8, ptr %27, i64 4
  store i32 0, ptr %28, align 4, !tbaa !41
  store i32 1000, ptr %27, align 8, !tbaa !42
  %29 = tail call noalias dereferenceable_or_null(8000) ptr @malloc(i64 noundef 8000) #22
  %30 = getelementptr inbounds nuw i8, ptr %27, i64 8
  store ptr %29, ptr %30, align 8, !tbaa !36
  %31 = getelementptr i8, ptr %1, i64 4
  %.val13 = load i32, ptr %31, align 4, !tbaa !41
  %32 = icmp sgt i32 %.val13, 0
  br i1 %32, label %.lr.ph, label %.critedge

.lr.ph:                                           ; preds = %Abc_NtkIncrementTravId.exit
  %33 = getelementptr i8, ptr %1, i64 8
  br label %34

34:                                               ; preds = %.lr.ph, %42
  %indvars.iv = phi i64 [ 0, %.lr.ph ], [ %indvars.iv.next, %42 ]
  %.val11 = load ptr, ptr %33, align 8, !tbaa !36
  %35 = getelementptr inbounds nuw ptr, ptr %.val11, i64 %indvars.iv
  %36 = load ptr, ptr %35, align 8, !tbaa !38
  %37 = ptrtoint ptr %36 to i64
  %38 = and i64 %37, -2
  %39 = inttoptr i64 %38 to ptr
  %40 = tail call fastcc i32 @Abc_NodeIsTravIdCurrent(ptr noundef %39)
  %.not = icmp eq i32 %40, 0
  br i1 %.not, label %41, label %42

41:                                               ; preds = %34
  tail call void @Abc_NtkDfs_iter(ptr noundef nonnull %27, ptr noundef %39, ptr noundef nonnull %23)
  br label %42

42:                                               ; preds = %34, %41
  %indvars.iv.next = add nuw nsw i64 %indvars.iv, 1
  %.val = load i32, ptr %31, align 4, !tbaa !41
  %43 = sext i32 %.val to i64
  %44 = icmp slt i64 %indvars.iv.next, %43
  br i1 %44, label %34, label %.critedge.loopexit, !llvm.loop !88

.critedge.loopexit:                               ; preds = %42
  %.pre = load ptr, ptr %30, align 8, !tbaa !36
  br label %.critedge

.critedge:                                        ; preds = %.critedge.loopexit, %Abc_NtkIncrementTravId.exit
  %45 = phi ptr [ %.pre, %.critedge.loopexit ], [ %29, %Abc_NtkIncrementTravId.exit ]
  %.not.i12 = icmp eq ptr %45, null
  br i1 %.not.i12, label %Vec_PtrFree.exit, label %46

46:                                               ; preds = %.critedge
  tail call void @free(ptr noundef nonnull %45) #23
  br label %Vec_PtrFree.exit

Vec_PtrFree.exit:                                 ; preds = %.critedge, %46
  tail call void @free(ptr noundef nonnull %27) #23
  ret ptr %23
}